; Function Attrs: mustprogress nounwind uwtable
define hidden void @_ZN2cv13RHO_HEST_REFCD0Ev(ptr noundef nonnull align 8 dereferenceable(452) initializes((0, 8)) %0) unnamed_addr #6 align 2 personality ptr @__gxx_personality_v0 {
  store ptr getelementptr inbounds nuw inrange(-16, 64) (i8, ptr @_ZTVN2cv13RHO_HEST_REFCE, i64 16), ptr %0, align 8, !tbaa !3
  %2 = getelementptr inbounds nuw i8, ptr %0, i64 448
  %3 = load i32, ptr %2, align 8, !tbaa !11
  %.not.i = icmp eq i32 %3, 0
  br i1 %.not.i, label %6, label %4

4:                                                ; preds = %1
  %5 = getelementptr inbounds nuw i8, ptr %0, i64 400
  invoke void @_ZN2cv5utils10BufferArea7releaseEv(ptr noundef nonnull align 8 dereferenceable(41) %5)
          to label %_ZN2cv13RHO_HEST_REFC8finalizeEv.exit.i unwind label %12

_ZN2cv13RHO_HEST_REFC8finalizeEv.exit.i:          ; preds = %4
  store i32 0, ptr %2, align 8, !tbaa !11
  br label %6

6:                                                ; preds = %_ZN2cv13RHO_HEST_REFC8finalizeEv.exit.i, %1
  %7 = getelementptr inbounds nuw i8, ptr %0, i64 400
  tail call void @_ZN2cv5utils10BufferAreaD1Ev(ptr noundef nonnull align 8 dereferenceable(41) %7) #23
  %8 = getelementptr inbounds nuw i8, ptr %0, i64 352
  tail call void @_ZN2cv5utils10BufferAreaD1Ev(ptr noundef nonnull align 8 dereferenceable(41) %8) #23
  %9 = getelementptr inbounds nuw i8, ptr %0, i64 216
  %10 = load ptr, ptr %9, align 8, !tbaa !6
  %.not.i.i.i.i.i = icmp eq ptr %10, null
  br i1 %.not.i.i.i.i.i, label %_ZN2cv13RHO_HEST_REFCD2Ev.exit, label %11

11:                                               ; preds = %6
  tail call void @_ZdlPv(ptr noundef nonnull %10) #24
  br label %_ZN2cv13RHO_HEST_REFCD2Ev.exit

12:                                               ; preds = %4
  %13 = landingpad { ptr, i32 }
          catch ptr null
  %14 = extractvalue { ptr, i32 } %13, 0
  tail call void @__clang_call_terminate(ptr %14) #26
  unreachable

_ZN2cv13RHO_HEST_REFCD2Ev.exit:                   ; preds = %6, %11
  tail call void @_ZdlPv(ptr noundef nonnull %0) #24
  ret void
}